(dp0
S'METTS MARK'
p1
(dp2
S'to_messages'
p3
F807.0
sS'deferral_payments'
p4
S'NaN'
p5
sS'expenses'
p6
F94299.0
sS'poi'
p7
I00
sS'long_term_incentive'
p8
S'NaN'
p9
sS'email_address'
p10
S'mark.metts@enron.com'
p11
sS'from_poi_to_this_person'
p12
F38.0
sS'from_poi_to_this_person_ratio'
p13
F0.04708798017348203
sS'deferred_income'
p14
S'NaN'
p15
sS'shared_ratio'
p16
F0.8397129186602871
sS'restricted_stock_deferred'
p17
S'NaN'
p18
sS'shared_receipt_with_poi'
p19
F702.0
sS'loan_advances'
p20
S'NaN'
p21
sS'from_messages'
p22
F29.0
sS'other'
p23
F1740.0
sS'director_fees'
p24
S'NaN'
p25
sS'bonus'
p26
F600000.0
sS'total_stock_value'
p27
F585062.0
sS'from_this_person_to_poi'
p28
F1.0
sS'restricted_stock'
p29
F585062.0
sS'salary'
p30
F365788.0
sS'total_payments'
p31
F1061827.0
sS'exercised_stock_options'
p32
S'NaN'
p33
sS'from_this_person_to_poi_ratio'
p34
F0.034482758620689655
ssS'BAXTER JOHN C'
p35
(dp36
g3
S'NaN'
p37
sg4
F1295738.0
sg6
F11200.0
sg7
I00
sg8
F1586055.0
sg10
S'NaN'
p38
sg12
S'NaN'
p39
sg13
S'NaN'
p40
sg14
F-1386055.0
sg16
S'NaN'
p41
sg17
g18
sg19
S'NaN'
p42
sg20
g21
sg22
S'NaN'
p43
sg23
F2660303.0
sg24
g25
sg26
F1200000.0
sg27
F10623258.0
sg28
S'NaN'
p44
sg29
F3942714.0
sg30
F267102.0
sg31
F5634343.0
sg32
F6680544.0
sg34
S'NaN'
p45
ssS'ELLIOTT STEVEN'
p46
(dp47
g3
g37
sg4
g5
sg6
F78552.0
sg7
I00
sg8
g9
sg10
S'steven.elliott@enron.com'
p48
sg12
g39
sg13
g40
sg14
F-400729.0
sg16
g41
sg17
g18
sg19
g42
sg20
g21
sg22
g43
sg23
F12961.0
sg24
g25
sg26
F350000.0
sg27
F6678735.0
sg28
g44
sg29
F1788391.0
sg30
F170941.0
sg31
F211725.0
sg32
F4890344.0
sg34
g45
ssS'CORDES WILLIAM R'
p49
(dp50
g3
F764.0
sg4
g5
sg6
S'NaN'
p51
sg7
I00
sg8
g9
sg10
S'bill.cordes@enron.com'
p52
sg12
F10.0
sg13
F0.013089005235602094
sg14
g15
sg16
F0.07474226804123711
sg17
g18
sg19
F58.0
sg20
g21
sg22
F12.0
sg23
S'NaN'
p53
sg24
g25
sg26
S'NaN'
p54
sg27
F1038185.0
sg28
F0.0
sg29
F386335.0
sg30
S'NaN'
p55
sg31
S'NaN'
p56
sg32
F651850.0
sg34
F0.0
ssS'HANNON KEVIN P'
p57
(dp58
g3
F1045.0
sg4
g5
sg6
F34039.0
sg7
I01
sg8
F1617011.0
sg10
S'kevin.hannon@enron.com'
p59
sg12
F32.0
sg13
F0.03062200956937799
sg14
F-3117011.0
sg16
F0.9610027855153204
sg17
g18
sg19
F1035.0
sg20
g21
sg22
F32.0
sg23
F11350.0
sg24
g25
sg26
F1500000.0
sg27
F6391065.0
sg28
F21.0
sg29
F853064.0
sg30
F243293.0
sg31
F288682.0
sg32
F5538001.0
sg34
F0.65625
ssS'MORDAUNT KRISTINA M'
p60
(dp61
g3
g37
sg4
g5
sg6
F35018.0
sg7
I00
sg8
g9
sg10
S'kristina.mordaunt@enron.com'
p62
sg12
g39
sg13
g40
sg14
g15
sg16
g41
sg17
g18
sg19
g42
sg20
g21
sg22
g43
sg23
F1411.0
sg24
g25
sg26
F325000.0
sg27
F208510.0
sg28
g44
sg29
F208510.0
sg30
F267093.0
sg31
F628522.0
sg32
g33
sg34
g45
ssS'MEYER ROCKFORD G'
p63
(dp64
g3
F232.0
sg4
F1848227.0
sg6
g51
sg7
I00
sg8
g9
sg10
S'rockford.meyer@enron.com'
p65
sg12
F0.0
sg13
F0.0
sg14
g15
sg16
F0.08461538461538462
sg17
g18
sg19
F22.0
sg20
g21
sg22
F28.0
sg23
g53
sg24
g25
sg26
g54
sg27
F955873.0
sg28
F0.0
sg29
F462384.0
sg30
g55
sg31
F1848227.0
sg32
F493489.0
sg34
F0.0
ssS'MCMAHON JEFFREY'
p66
(dp67
g3
F2355.0
sg4
g5
sg6
F137108.0
sg7
I00
sg8
F694862.0
sg10
S'jeffrey.mcmahon@enron.com'
p68
sg12
F58.0
sg13
F0.024628450106157114
sg14
g15
sg16
F0.9271743653766126
sg17
g18
sg19
F2228.0
sg20
g21
sg22
F48.0
sg23
F297353.0
sg24
g25
sg26
F2600000.0
sg27
F1662855.0
sg28
F26.0
sg29
F558801.0
sg30
F370448.0
sg31
F4099771.0
sg32
F1104054.0
sg34
F0.5416666666666666
ssS'HAEDICKE MARK E'
p69
(dp70
g3
F4009.0
sg4
F2157527.0
sg6
F76169.0
sg7
I00
sg8
F983346.0
sg10
S'mark.haedicke@enron.com'
p71
sg12
F180.0
sg13
F0.04489897730107259
sg14
F-934484.0
sg16
F0.3104201680672269
sg17
F-329825.0
sg19
F1847.0
sg20
g21
sg22
F1941.0
sg23
F52382.0
sg24
g25
sg26
F1150000.0
sg27
F803094.0
sg28
F61.0
sg29
F524169.0
sg30
F374125.0
sg31
F3859065.0
sg32
F608750.0
sg34
F0.03142709943328181
ssS'PIPER GREGORY F'
p72
(dp73
g3
F1238.0
sg4
F1130036.0
sg6
F43057.0
sg7
I00
sg8
g9
sg10
S'greg.piper@enron.com'
p74
sg12
F61.0
sg13
F0.049273021001615507
sg14
F-33333.0
sg16
F0.5082191780821917
sg17
F-409554.0
sg19
F742.0
sg20
g21
sg22
F222.0
sg23
F778.0
sg24
g25
sg26
F400000.0
sg27
F880290.0
sg28
F48.0
sg29
F409554.0
sg30
F197091.0
sg31
F1737629.0
sg32
F880290.0
sg34
F0.21621621621621623
ssS'HUMPHREY GENE E'
p75
(dp76
g3
F128.0
sg4
F2964506.0
sg6
F4994.0
sg7
I00
sg8
g9
sg10
S'gene.humphrey@enron.com'
p77
sg12
F10.0
sg13
F0.078125
sg14
g15
sg16
F0.8206896551724138
sg17
g18
sg19
F119.0
sg20
g21
sg22
F17.0
sg23
g53
sg24
g25
sg26
g54
sg27
F2282768.0
sg28
F17.0
sg29
S'NaN'
p78
sg30
F130724.0
sg31
F3100224.0
sg32
F2282768.0
sg34
F1.0
ssS'NOLES JAMES L'
p79
(dp80
g3
g37
sg4
F774401.0
sg6
g51
sg7
I00
sg8
g9
sg10
g38
sg12
g39
sg13
g40
sg14
g15
sg16
g41
sg17
F-94556.0
sg19
g42
sg20
g21
sg22
g43
sg23
g53
sg24
g25
sg26
g54
sg27
F368705.0
sg28
g44
sg29
F463261.0
sg30
g55
sg31
F774401.0
sg32
g33
sg34
g45
ssS'BLACHMAN JEREMY M'
p81
(dp82
g3
F2475.0
sg4
g5
sg6
F84208.0
sg7
I00
sg8
F831809.0
sg10
S'jeremy.blachman@enron.com'
p83
sg12
F25.0
sg13
F0.010101010101010102
sg14
g15
sg16
F0.9345118521494576
sg17
g18
sg19
F2326.0
sg20
g21
sg22
F14.0
sg23
F272.0
sg24
g25
sg26
F850000.0
sg27
F954354.0
sg28
F2.0
sg29
F189041.0
sg30
F248546.0
sg31
F2014835.0
sg32
F765313.0
sg34
F0.14285714285714285
ssS'SUNDE MARTIN'
p84
(dp85
g3
F2647.0
sg4
g5
sg6
g51
sg7
I00
sg8
F476451.0
sg10
S'marty.sunde@enron.com'
p86
sg12
F37.0
sg13
F0.013978088401964487
sg14
g15
sg16
F0.9553072625698324
sg17
g18
sg19
F2565.0
sg20
g21
sg22
F38.0
sg23
F111122.0
sg24
g25
sg26
F700000.0
sg27
F698920.0
sg28
F13.0
sg29
F698920.0
sg30
F257486.0
sg31
F1545059.0
sg32
g33
sg34
F0.34210526315789475
ssS'GIBBS DANA R'
p87
(dp88
g3
F169.0
sg4
F504610.0
sg6
g51
sg7
I00
sg8
F461912.0
sg10
S'dana.gibbs@enron.com'
p89
sg12
F0.0
sg13
F0.0
sg14
g15
sg16
F0.1270718232044199
sg17
g18
sg19
F23.0
sg20
g21
sg22
F12.0
sg23
g53
sg24
g25
sg26
g54
sg27
F2218275.0
sg28
F0.0
sg29
g78
sg30
g55
sg31
F966522.0
sg32
F2218275.0
sg34
F0.0
ssS'LOWRY CHARLES P'
p90
(dp91
g3
g37
sg4
g5
sg6
g51
sg7
I00
sg8
g9
sg10
g38
sg12
g39
sg13
g40
sg14
g15
sg16
g41
sg17
F-153686.0
sg19
g42
sg20
g21
sg22
g43
sg23
g53
sg24
g25
sg26
g54
sg27
F372205.0
sg28
g44
sg29
F153686.0
sg30
g55
sg31
g56
sg32
F372205.0
sg34
g45
ssS'COLWELL WESLEY'
p92
(dp93
g3
F1758.0
sg4
F27610.0
sg6
F16514.0
sg7
I01
sg8
g9
sg10
S'wes.colwell@enron.com'
p94
sg12
F240.0
sg13
F0.13651877133105803
sg14
F-144062.0
sg16
F0.6295884315906563
sg17
g18
sg19
F1132.0
sg20
g21
sg22
F40.0
sg23
F101740.0
sg24
g25
sg26
F1200000.0
sg27
F698242.0
sg28
F11.0
sg29
F698242.0
sg30
F288542.0
sg31
F1490344.0
sg32
g33
sg34
F0.275
ssS'MULLER MARK S'
p95
(dp96
g3
F136.0
sg4
F842924.0
sg6
g51
sg7
I00
sg8
F1725545.0
sg10
S's..muller@enron.com'
p97
sg12
F12.0
sg13
F0.08823529411764706
sg14
F-719000.0
sg16
F0.75
sg17
g18
sg19
F114.0
sg20
g21
sg22
F16.0
sg23
F947.0
sg24
g25
sg26
F1100000.0
sg27
F1416848.0
sg28
F0.0
sg29
F360528.0
sg30
F251654.0
sg31
F3202070.0
sg32
F1056320.0
sg34
F0.0
ssS'JACKSON CHARLENE R'
p98
(dp99
g3
F258.0
sg4
g5
sg6
F10181.0
sg7
I00
sg8
g9
sg10
S'charlene.jackson@enron.com'
p100
sg12
F25.0
sg13
F0.09689922480620156
sg14
g15
sg16
F0.37261146496815284
sg17
g18
sg19
F117.0
sg20
g21
sg22
F56.0
sg23
F2435.0
sg24
g25
sg26
F250000.0
sg27
F725735.0
sg28
F19.0
sg29
F540672.0
sg30
F288558.0
sg31
F551174.0
sg32
F185063.0
sg34
F0.3392857142857143
ssS'WESTFAHL RICHARD K'
p101
(dp102
g3
g37
sg4
g5
sg6
F51870.0
sg7
I00
sg8
F256191.0
sg10
S'dick.westfahl@enron.com'
p103
sg12
g39
sg13
g40
sg14
F-10800.0
sg16
g41
sg17
g18
sg19
g42
sg20
g21
sg22
g43
sg23
F401130.0
sg24
g25
sg26
g54
sg27
F384930.0
sg28
g44
sg29
F384930.0
sg30
F63744.0
sg31
F762135.0
sg32
g33
sg34
g45
ssS'WALTERS GARETH W'
p104
(dp105
g3
g37
sg4
F53625.0
sg6
F33785.0
sg7
I00
sg8
g9
sg10
g38
sg12
g39
sg13
g40
sg14
g15
sg16
g41
sg17
g18
sg19
g42
sg20
g21
sg22
g43
sg23
g53
sg24
g25
sg26
g54
sg27
F1030329.0
sg28
g44
sg29
g78
sg30
g55
sg31
F87410.0
sg32
F1030329.0
sg34
g45
ssS'WALLS JR ROBERT H'
p106
(dp107
g3
F671.0
sg4
g5
sg6
F50936.0
sg7
I00
sg8
F540751.0
sg10
S'rob.walls@enron.com'
p108
sg12
F17.0
sg13
F0.02533532041728763
sg14
g15
sg16
F0.2631578947368421
sg17
g18
sg19
F215.0
sg20
g21
sg22
F146.0
sg23
F2.0
sg24
g25
sg26
F850000.0
sg27
F5898997.0
sg28
F0.0
sg29
F1552453.0
sg30
F357091.0
sg31
F1798780.0
sg32
F4346544.0
sg34
F0.0
ssS'KITCHEN LOUISE'
p109
(dp110
g3
F8305.0
sg4
g5
sg6
F5774.0
sg7
I00
sg8
g9
sg10
S'louise.kitchen@enron.com'
p111
sg12
F251.0
sg13
F0.030222757375075255
sg14
g15
sg16
F0.36569321239908303
sg17
g18
sg19
F3669.0
sg20
g21
sg22
F1728.0
sg23
F93925.0
sg24
g25
sg26
F3100000.0
sg27
F547143.0
sg28
F194.0
sg29
F466101.0
sg30
F271442.0
sg31
F3471141.0
sg32
F81042.0
sg34
F0.11226851851851852
ssS'CHAN RONNIE'
p112
(dp113
g3
g37
sg4
g5
sg6
g51
sg7
I00
sg8
g9
sg10
g38
sg12
g39
sg13
g40
sg14
F-98784.0
sg16
g41
sg17
F-32460.0
sg19
g42
sg20
g21
sg22
g43
sg23
g53
sg24
F98784.0
sg26
g54
sg27
S'NaN'
p114
sg28
g44
sg29
F32460.0
sg30
g55
sg31
g56
sg32
g33
sg34
g45
ssS'BELFER ROBERT'
p115
(dp116
g3
g37
sg4
F-102500.0
sg6
g51
sg7
I00
sg8
g9
sg10
g38
sg12
g39
sg13
g40
sg14
g15
sg16
g41
sg17
F44093.0
sg19
g42
sg20
g21
sg22
g43
sg23
g53
sg24
F3285.0
sg26
g54
sg27
F-44093.0
sg28
g44
sg29
g78
sg30
g55
sg31
F102500.0
sg32
F3285.0
sg34
g45
ssS'SHANKMAN JEFFREY A'
p117
(dp118
g3
F3221.0
sg4
g5
sg6
F178979.0
sg7
I00
sg8
F554422.0
sg10
S'jeffrey.shankman@enron.com'
p119
sg12
F94.0
sg13
F0.029183483390251473
sg14
g15
sg16
F0.2931209759403592
sg17
g18
sg19
F1730.0
sg20
g21
sg22
F2681.0
sg23
F1191.0
sg24
g25
sg26
F2000000.0
sg27
F2072035.0
sg28
F83.0
sg29
F630137.0
sg30
F304110.0
sg31
F3038702.0
sg32
F1441898.0
sg34
F0.030958597538232
ssS'WODRASKA JOHN'
p120
(dp121
g3
g37
sg4
g5
sg6
g51
sg7
I00
sg8
g9
sg10
S'john.wodraska@enron.com'
p122
sg12
g39
sg13
g40
sg14
g15
sg16
g41
sg17
g18
sg19
g42
sg20
g21
sg22
g43
sg23
F189583.0
sg24
g25
sg26
g54
sg27
g114
sg28
g44
sg29
g78
sg30
g55
sg31
F189583.0
sg32
g33
sg34
g45
ssS'BERGSIEKER RICHARD P'
p123
(dp124
g3
F383.0
sg4
g5
sg6
F59175.0
sg7
I00
sg8
F180250.0
sg10
S'rick.bergsieker@enron.com'
p125
sg12
F4.0
sg13
F0.010443864229765013
sg14
F-485813.0
sg16
F0.5271493212669683
sg17
g18
sg19
F233.0
sg20
g21
sg22
F59.0
sg23
F427316.0
sg24
g25
sg26
F250000.0
sg27
F659249.0
sg28
F0.0
sg29
F659249.0
sg30
F187922.0
sg31
F618850.0
sg32
g33
sg34
F0.0
ssS'URQUHART JOHN A'
p126
(dp127
g3
g37
sg4
g5
sg6
F228656.0
sg7
I00
sg8
g9
sg10
g38
sg12
g39
sg13
g40
sg14
F-36666.0
sg16
g41
sg17
g18
sg19
g42
sg20
g21
sg22
g43
sg23
g53
sg24
F36666.0
sg26
g54
sg27
g114
sg28
g44
sg29
g78
sg30
g55
sg31
F228656.0
sg32
g33
sg34
g45
ssS'BIBI PHILIPPE A'
p128
(dp129
g3
F1607.0
sg4
g5
sg6
F38559.0
sg7
I00
sg8
F369721.0
sg10
S'philippe.bibi@enron.com'
p130
sg12
F23.0
sg13
F0.01431238332296204
sg14
g15
sg16
F0.8111718275652702
sg17
g18
sg19
F1336.0
sg20
g21
sg22
F40.0
sg23
F425688.0
sg24
g25
sg26
F1000000.0
sg27
F1843816.0
sg28
F8.0
sg29
F378082.0
sg30
F213625.0
sg31
F2047593.0
sg32
F1465734.0
sg34
F0.2
ssS'RIEKER PAULA H'
p131
(dp132
g3
F1328.0
sg4
F214678.0
sg6
F33271.0
sg7
I01
sg8
g9
sg10
S'paula.rieker@enron.com'
p133
sg12
F35.0
sg13
F0.02635542168674699
sg14
F-100000.0
sg16
F0.8921985815602836
sg17
g18
sg19
F1258.0
sg20
g21
sg22
F82.0
sg23
F1950.0
sg24
g25
sg26
F700000.0
sg27
F1918887.0
sg28
F48.0
sg29
F283649.0
sg30
F249201.0
sg31
F1099100.0
sg32
F1635238.0
sg34
F0.5853658536585366
ssS'WHALEY DAVID A'
p134
(dp135
g3
g37
sg4
g5
sg6
g51
sg7
I00
sg8
g9
sg10
g38
sg12
g39
sg13
g40
sg14
g15
sg16
g41
sg17
g18
sg19
g42
sg20
g21
sg22
g43
sg23
g53
sg24
g25
sg26
g54
sg27
F98718.0
sg28
g44
sg29
g78
sg30
g55
sg31
g56
sg32
F98718.0
sg34
g45
ssS'BECK SALLY W'
p136
(dp137
g3
F7315.0
sg4
g5
sg6
F37172.0
sg7
I00
sg8
g9
sg10
S'sally.beck@enron.com'
p138
sg12
F144.0
sg13
F0.01968557758031442
sg14
g15
sg16
F0.2263681592039801
sg17
g18
sg19
F2639.0
sg20
g21
sg22
F4343.0
sg23
F566.0
sg24
g25
sg26
F700000.0
sg27
F126027.0
sg28
F386.0
sg29
F126027.0
sg30
F231330.0
sg31
F969068.0
sg32
g33
sg34
F0.08887865530739121
ssS'HAUG DAVID L'
p139
(dp140
g3
F573.0
sg4
g5
sg6
F475.0
sg7
I00
sg8
g9
sg10
S'david.haug@enron.com'
p141
sg12
F4.0
sg13
F0.006980802792321117
sg14
g15
sg16
F0.7956081081081081
sg17
g18
sg19
F471.0
sg20
g21
sg22
F19.0
sg23
g53
sg24
g25
sg26
g54
sg27
F2217299.0
sg28
F7.0
sg29
F2217299.0
sg30
g55
sg31
F475.0
sg32
g33
sg34
F0.3684210526315789
ssS'ECHOLS JOHN B'
p142
(dp143
g3
g37
sg4
g5
sg6
F21530.0
sg7
I00
sg8
F2234774.0
sg10
S'john.echols@enron.com'
p144
sg12
g39
sg13
g40
sg14
g15
sg16
g41
sg17
g18
sg19
g42
sg20
g21
sg22
g43
sg23
F53775.0
sg24
g25
sg26
F200000.0
sg27
F1008941.0
sg28
g44
sg29
F407503.0
sg30
F182245.0
sg31
F2692324.0
sg32
F601438.0
sg34
g45
ssS'MENDELSOHN JOHN'
p145
(dp146
g3
g37
sg4
g5
sg6
F148.0
sg7
I00
sg8
g9
sg10
g38
sg12
g39
sg13
g40
sg14
F-103750.0
sg16
g41
sg17
g18
sg19
g42
sg20
g21
sg22
g43
sg23
g53
sg24
F103750.0
sg26
g54
sg27
g114
sg28
g44
sg29
g78
sg30
g55
sg31
F148.0
sg32
g33
sg34
g45
ssS'HICKERSON GARY J'
p147
(dp148
g3
F1320.0
sg4
g5
sg6
F98849.0
sg7
I00
sg8
F69223.0
sg10
S'gary.hickerson@enron.com'
p149
sg12
F40.0
sg13
F0.030303030303030304
sg14
g15
sg16
F0.6681514476614699
sg17
g18
sg19
F900.0
sg20
g21
sg22
F27.0
sg23
F1936.0
sg24
g25
sg26
F1700000.0
sg27
F441096.0
sg28
F1.0
sg29
F441096.0
sg30
F211788.0
sg31
F2081796.0
sg32
g33
sg34
F0.037037037037037035
ssS'CLINE KENNETH W'
p150
(dp151
g3
g37
sg4
g5
sg6
g51
sg7
I00
sg8
g9
sg10
g38
sg12
g39
sg13
g40
sg14
g15
sg16
g41
sg17
F-472568.0
sg19
g42
sg20
g21
sg22
g43
sg23
g53
sg24
g25
sg26
g54
sg27
F189518.0
sg28
g44
sg29
F662086.0
sg30
g55
sg31
g56
sg32
g33
sg34
g45
ssS'LEWIS RICHARD'
p152
(dp153
g3
F952.0
sg4
g5
sg6
g51
sg7
I00
sg8
g9
sg10
S'richard.lewis@enron.com'
p154
sg12
F10.0
sg13
F0.01050420168067227
sg14
g15
sg16
F0.7556237218813906
sg17
g18
sg19
F739.0
sg20
g21
sg22
F26.0
sg23
g53
sg24
g25
sg26
g54
sg27
F850477.0
sg28
F0.0
sg29
g78
sg30
g55
sg31
g56
sg32
F850477.0
sg34
F0.0
ssS'HAYES ROBERT E'
p155
(dp156
g3
F504.0
sg4
F7961.0
sg6
g51
sg7
I00
sg8
g9
sg10
S'robert.hayes@enron.com'
p157
sg12
F16.0
sg13
F0.031746031746031744
sg14
g15
sg16
F0.09689922480620156
sg17
g18
sg19
F50.0
sg20
g21
sg22
F12.0
sg23
g53
sg24
g25
sg26
g54
sg27
F151418.0
sg28
F0.0
sg29
F151418.0
sg30
g55
sg31
F7961.0
sg32
g33
sg34
F0.0
ssS'KOPPER MICHAEL J'
p158
(dp159
g3
g37
sg4
g5
sg6
F118134.0
sg7
I01
sg8
F602671.0
sg10
S'michael.kopper@enron.com'
p160
sg12
g39
sg13
g40
sg14
g15
sg16
g41
sg17
g18
sg19
g42
sg20
g21
sg22
g43
sg23
F907502.0
sg24
g25
sg26
F800000.0
sg27
F985032.0
sg28
g44
sg29
F985032.0
sg30
F224305.0
sg31
F2652612.0
sg32
g33
sg34
g45
ssS'LEFF DANIEL P'
p161
(dp162
g3
F2822.0
sg4
g5
sg6
g51
sg7
I00
sg8
F1387399.0
sg10
S'dan.leff@enron.com'
p163
sg12
F67.0
sg13
F0.02374202693125443
sg14
g15
sg16
F0.9261698440207973
sg17
g18
sg19
F2672.0
sg20
g21
sg22
F63.0
sg23
F3083.0
sg24
g25
sg26
F1000000.0
sg27
F360528.0
sg28
F14.0
sg29
F360528.0
sg30
F273746.0
sg31
F2664228.0
sg32
g33
sg34
F0.2222222222222222
ssS'LAVORATO JOHN J'
p164
(dp165
g3
F7259.0
sg4
g5
sg6
F49537.0
sg7
I00
sg8
F2035380.0
sg10
S'john.lavorato@enron.com'
p166
sg12
F528.0
sg13
F0.07273729163796666
sg14
g15
sg16
F0.4024786672084518
sg17
g18
sg19
F3962.0
sg20
g21
sg22
F2585.0
sg23
F1552.0
sg24
g25
sg26
F8000000.0
sg27
F5167144.0
sg28
F411.0
sg29
F1008149.0
sg30
F339288.0
sg31
F10425757.0
sg32
F4158995.0
sg34
F0.15899419729206962
ssS'BERBERIAN DAVID'
p167
(dp168
g3
g37
sg4
g5
sg6
F11892.0
sg7
I00
sg8
g9
sg10
S'david.berberian@enron.com'
p169
sg12
g39
sg13
g40
sg14
g15
sg16
g41
sg17
g18
sg19
g42
sg20
g21
sg22
g43
sg23
g53
sg24
g25
sg26
g54
sg27
F2493616.0
sg28
g44
sg29
F869220.0
sg30
F216582.0
sg31
F228474.0
sg32
F1624396.0
sg34
g45
ssS'DETMERING TIMOTHY J'
p170
(dp171
g3
g37
sg4
F875307.0
sg6
F52255.0
sg7
I00
sg8
F415657.0
sg10
S'timothy.detmering@enron.com'
p172
sg12
g39
sg13
g40
sg14
F-775241.0
sg16
g41
sg17
F-315068.0
sg19
g42
sg20
g21
sg22
g43
sg23
F1105.0
sg24
g25
sg26
F425000.0
sg27
F2027865.0
sg28
g44
sg29
F315068.0
sg30
F210500.0
sg31
F1204583.0
sg32
F2027865.0
sg34
g45
ssS'WAKEHAM JOHN'
p173
(dp174
g3
g37
sg4
g5
sg6
F103773.0
sg7
I00
sg8
g9
sg10
g38
sg12
g39
sg13
g40
sg14
g15
sg16
g41
sg17
g18
sg19
g42
sg20
g21
sg22
g43
sg23
g53
sg24
F109298.0
sg26
g54
sg27
g114
sg28
g44
sg29
g78
sg30
g55
sg31
F213071.0
sg32
g33
sg34
g45
ssS'POWERS WILLIAM'
p175
(dp176
g3
F653.0
sg4
g5
sg6
g51
sg7
I00
sg8
g9
sg10
S'ken.powers@enron.com'
p177
sg12
F0.0
sg13
F0.0
sg14
F-17500.0
sg16
F0.017673048600883652
sg17
g18
sg19
F12.0
sg20
g21
sg22
F26.0
sg23
g53
sg24
F17500.0
sg26
g54
sg27
g114
sg28
F0.0
sg29
g78
sg30
g55
sg31
g56
sg32
g33
sg34
F0.0
ssS'GOLD JOSEPH'
p178
(dp179
g3
g37
sg4
g5
sg6
g51
sg7
I00
sg8
F304805.0
sg10
S'joe.gold@enron.com'
p180
sg12
g39
sg13
g40
sg14
g15
sg16
g41
sg17
g18
sg19
g42
sg20
g21
sg22
g43
sg23
F819288.0
sg24
g25
sg26
F750000.0
sg27
F877611.0
sg28
g44
sg29
F441096.0
sg30
F272880.0
sg31
F2146973.0
sg32
F436515.0
sg34
g45
ssS'BANNANTINE JAMES M'
p181
(dp182
g3
F566.0
sg4
g5
sg6
F56301.0
sg7
I00
sg8
g9
sg10
S'james.bannantine@enron.com'
p183
sg12
F39.0
sg13
F0.06890459363957598
sg14
F-5104.0
sg16
F0.7815126050420168
sg17
F-560222.0
sg19
F465.0
sg20
g21
sg22
F29.0
sg23
F864523.0
sg24
g25
sg26
g54
sg27
F5243487.0
sg28
F0.0
sg29
F1757552.0
sg30
F477.0
sg31
F916197.0
sg32
F4046157.0
sg34
F0.0
ssS'DUNCAN JOHN H'
p184
(dp185
g3
g37
sg4
g5
sg6
g51
sg7
I00
sg8
g9
sg10
g38
sg12
g39
sg13
g40
sg14
F-25000.0
sg16
g41
sg17
g18
sg19
g42
sg20
g21
sg22
g43
sg23
g53
sg24
F102492.0
sg26
g54
sg27
F371750.0
sg28
g44
sg29
g78
sg30
g55
sg31
F77492.0
sg32
F371750.0
sg34
g45
ssS'SHAPIRO RICHARD S'
p186
(dp187
g3
F15149.0
sg4
g5
sg6
F137767.0
sg7
I00
sg8
g9
sg10
S'richard.shapiro@enron.com'
p188
sg12
F74.0
sg13
F0.0048848108786058485
sg14
g15
sg16
F0.2766438523588365
sg17
g18
sg19
F4527.0
sg20
g21
sg22
F1215.0
sg23
F705.0
sg24
g25
sg26
F650000.0
sg27
F987001.0
sg28
F65.0
sg29
F379164.0
sg30
F269076.0
sg31
F1057548.0
sg32
F607837.0
sg34
F0.053497942386831275
ssS'SHERRIFF JOHN R'
p189
(dp190
g3
F3187.0
sg4
g5
sg6
g51
sg7
I00
sg8
F554422.0
sg10
S'john.sherriff@enron.com'
p191
sg12
F28.0
sg13
F0.008785691873235017
sg14
g15
sg16
F0.6413540713632205
sg17
g18
sg19
F2103.0
sg20
g21
sg22
F92.0
sg23
F1852186.0
sg24
g25
sg26
F1500000.0
sg27
F3128982.0
sg28
F23.0
sg29
F1293424.0
sg30
F428780.0
sg31
F4335388.0
sg32
F1835558.0
sg34
F0.25
ssS'SHELBY REX'
p192
(dp193
g3
F225.0
sg4
g5
sg6
F22884.0
sg7
I01
sg8
g9
sg10
S'rex.shelby@enron.com'
p194
sg12
F13.0
sg13
F0.057777777777777775
sg14
F-4167.0
sg16
F0.3446969696969697
sg17
g18
sg19
F91.0
sg20
g21
sg22
F39.0
sg23
F1573324.0
sg24
g25
sg26
F200000.0
sg27
F2493616.0
sg28
F14.0
sg29
F869220.0
sg30
F211844.0
sg31
F2003885.0
sg32
F1624396.0
sg34
F0.358974358974359
ssS'LEMAISTRE CHARLES'
p195
(dp196
g3
g37
sg4
g5
sg6
g51
sg7
I00
sg8
g9
sg10
g38
sg12
g39
sg13
g40
sg14
F-25000.0
sg16
g41
sg17
g18
sg19
g42
sg20
g21
sg22
g43
sg23
g53
sg24
F112492.0
sg26
g54
sg27
F412878.0
sg28
g44
sg29
g78
sg30
g55
sg31
F87492.0
sg32
F412878.0
sg34
g45
ssS'DEFFNER JOSEPH M'
p197
(dp198
g3
F714.0
sg4
g5
sg6
F41626.0
sg7
I00
sg8
F335349.0
sg10
S'joseph.deffner@enron.com'
p199
sg12
F115.0
sg13
F0.16106442577030813
sg14
g15
sg16
F0.700507614213198
sg17
g18
sg19
F552.0
sg20
g21
sg22
F74.0
sg23
F25553.0
sg24
g25
sg26
F600000.0
sg27
F159211.0
sg28
F4.0
sg29
F141833.0
sg30
F206121.0
sg31
F1208649.0
sg32
F17378.0
sg34
F0.05405405405405406
ssS'KISHKILL JOSEPH G'
p200
(dp201
g3
g37
sg4
g5
sg6
F116335.0
sg7
I00
sg8
g9
sg10
S'joe.kishkill@enron.com'
p202
sg12
g39
sg13
g40
sg14
F-51042.0
sg16
g41
sg17
g18
sg19
g42
sg20
g21
sg22
g43
sg23
F465357.0
sg24
g25
sg26
g54
sg27
F1034346.0
sg28
g44
sg29
F1034346.0
sg30
F174246.0
sg31
F704896.0
sg32
g33
sg34
g45
ssS'WHALLEY LAWRENCE G'
p203
(dp204
g3
F6019.0
sg4
g5
sg6
F57838.0
sg7
I00
sg8
F808346.0
sg10
S'greg.whalley@enron.com'
p205
sg12
F186.0
sg13
F0.03090214321315833
sg14
g15
sg16
F0.5961977186311787
sg17
g18
sg19
F3920.0
sg20
g21
sg22
F556.0
sg23
F301026.0
sg24
g25
sg26
F3000000.0
sg27
F6079137.0
sg28
F24.0
sg29
F2796177.0
sg30
F510364.0
sg31
F4677574.0
sg32
F3282960.0
sg34
F0.04316546762589928
ssS'PIRO JIM'
p206
(dp207
g3
F58.0
sg4
g5
sg6
g51
sg7
I00
sg8
g9
sg10
S'jim.piro@enron.com'
p208
sg12
F0.0
sg13
F0.0
sg14
g15
sg16
F0.04054054054054054
sg17
g18
sg19
F3.0
sg20
g21
sg22
F16.0
sg23
g53
sg24
g25
sg26
g54
sg27
F47304.0
sg28
F1.0
sg29
F47304.0
sg30
g55
sg31
g56
sg32
g33
sg34
F0.0625
ssS'MCCONNELL MICHAEL S'
p209
(dp210
g3
F3329.0
sg4
g5
sg6
F81364.0
sg7
I00
sg8
F554422.0
sg10
S'mike.mcconnell@enron.com'
p211
sg12
F92.0
sg13
F0.02763592670471613
sg14
g15
sg16
F0.3605666282325811
sg17
g18
sg19
F2189.0
sg20
g21
sg22
F2742.0
sg23
F540.0
sg24
g25
sg26
F1100000.0
sg27
F3101279.0
sg28
F194.0
sg29
F1478269.0
sg30
F365038.0
sg31
F2101364.0
sg32
F1623010.0
sg34
F0.07075127644055434
ssS'DELAINEY DAVID W'
p212
(dp213
g3
F3093.0
sg4
g5
sg6
F86174.0
sg7
I01
sg8
F1294981.0
sg10
S'david.delainey@enron.com'
p214
sg12
F66.0
sg13
F0.02133850630455868
sg14
g15
sg16
F0.3403115871470302
sg17
g18
sg19
F2097.0
sg20
g21
sg22
F3069.0
sg23
F1661.0
sg24
g25
sg26
F3000000.0
sg27
F3614261.0
sg28
F609.0
sg29
F1323148.0
sg30
F365163.0
sg31
F4747979.0
sg32
F2291113.0
sg34
F0.198435972629521
ssS'SULLIVAN-SHAKLOVITZ COLLEEN'
p215
(dp216
g3
g37
sg4
F181993.0
sg6
g51
sg7
I00
sg8
F554422.0
sg10
g38
sg12
g39
sg13
g40
sg14
g15
sg16
g41
sg17
g18
sg19
g42
sg20
g21
sg22
g43
sg23
F162.0
sg24
g25
sg26
F100000.0
sg27
F1362375.0
sg28
g44
sg29
g78
sg30
F162779.0
sg31
F999356.0
sg32
F1362375.0
sg34
g45
ssS'WROBEL BRUCE'
p217
(dp218
g3
g37
sg4
g5
sg6
g51
sg7
I00
sg8
g9
sg10
g38
sg12
g39
sg13
g40
sg14
g15
sg16
g41
sg17
g18
sg19
g42
sg20
g21
sg22
g43
sg23
g53
sg24
g25
sg26
g54
sg27
F139130.0
sg28
g44
sg29
g78
sg30
g55
sg31
g56
sg32
F139130.0
sg34
g45
ssS'LINDHOLM TOD A'
p219
(dp220
g3
g37
sg4
F204075.0
sg6
F57727.0
sg7
I00
sg8
F175000.0
sg10
S'tod.lindholm@enron.com'
p221
sg12
g39
sg13
g40
sg14
g15
sg16
g41
sg17
g18
sg19
g42
sg20
g21
sg22
g43
sg23
F2630.0
sg24
g25
sg26
F200000.0
sg27
F3064208.0
sg28
g44
sg29
F514847.0
sg30
F236457.0
sg31
F875889.0
sg32
F2549361.0
sg34
g45
ssS'MEYER JEROME J'
p222
(dp223
g3
g37
sg4
g5
sg6
F2151.0
sg7
I00
sg8
g9
sg10
g38
sg12
g39
sg13
g40
sg14
F-38346.0
sg16
g41
sg17
g18
sg19
g42
sg20
g21
sg22
g43
sg23
g53
sg24
F38346.0
sg26
g54
sg27
g114
sg28
g44
sg29
g78
sg30
g55
sg31
F2151.0
sg32
g33
sg34
g45
ssS'LAY KENNETH L'
p224
(dp225
g3
F4273.0
sg4
F202911.0
sg6
F99832.0
sg7
I01
sg8
F3600000.0
sg10
S'kenneth.lay@enron.com'
p226
sg12
F123.0
sg13
F0.028785396676807865
sg14
F-300000.0
sg16
F0.5595265722905547
sg17
g18
sg19
F2411.0
sg20
F81525000.0
sg22
F36.0
sg23
F10359729.0
sg24
g25
sg26
F7000000.0
sg27
F49110078.0
sg28
F16.0
sg29
F14761694.0
sg30
F1072321.0
sg31
F103559793.0
sg32
F34348384.0
sg34
F0.4444444444444444
ssS'BUTTS ROBERT H'
p227
(dp228
g3
g37
sg4
g5
sg6
F9410.0
sg7
I00
sg8
F175000.0
sg10
S'bob.butts@enron.com'
p229
sg12
g39
sg13
g40
sg14
F-75000.0
sg16
g41
sg17
g18
sg19
g42
sg20
g21
sg22
g43
sg23
F150656.0
sg24
g25
sg26
F750000.0
sg27
F417619.0
sg28
g44
sg29
F417619.0
sg30
F261516.0
sg31
F1271582.0
sg32
g33
sg34
g45
ssS'OLSON CINDY K'
p230
(dp231
g3
F1184.0
sg4
F77716.0
sg6
F63791.0
sg7
I00
sg8
F100000.0
sg10
S'cindy.olson@enron.com'
p232
sg12
F20.0
sg13
F0.016891891891891893
sg14
g15
sg16
F0.6925566343042071
sg17
g18
sg19
F856.0
sg20
g21
sg22
F52.0
sg23
F972.0
sg24
g25
sg26
F750000.0
sg27
F2606763.0
sg28
F15.0
sg29
F969729.0
sg30
F329078.0
sg31
F1321557.0
sg32
F1637034.0
sg34
F0.28846153846153844
ssS'MCDONALD REBECCA'
p233
(dp234
g3
F894.0
sg4
g5
sg6
g51
sg7
I00
sg8
g9
sg10
S'rebecca.mcdonald@enron.com'
p235
sg12
F54.0
sg13
F0.06040268456375839
sg14
g15
sg16
F0.7938257993384785
sg17
g18
sg19
F720.0
sg20
g21
sg22
F13.0
sg23
g53
sg24
g25
sg26
g54
sg27
F1691366.0
sg28
F1.0
sg29
F934065.0
sg30
g55
sg31
g56
sg32
F757301.0
sg34
F0.07692307692307693
ssS'CUMBERLAND MICHAEL S'
p236
(dp237
g3
g37
sg4
g5
sg6
F22344.0
sg7
I00
sg8
F275000.0
sg10
g38
sg12
g39
sg13
g40
sg14
g15
sg16
g41
sg17
g18
sg19
g42
sg20
g21
sg22
g43
sg23
F713.0
sg24
g25
sg26
F325000.0
sg27
F207940.0
sg28
g44
sg29
F207940.0
sg30
F184899.0
sg31
F807956.0
sg32
g33
sg34
g45
ssS'GAHN ROBERT S'
p238
(dp239
g3
g37
sg4
F73122.0
sg6
F50080.0
sg7
I00
sg8
g9
sg10
g38
sg12
g39
sg13
g40
sg14
F-1042.0
sg16
g41
sg17
g18
sg19
g42
sg20
g21
sg22
g43
sg23
F76547.0
sg24
g25
sg26
F509870.0
sg27
F318607.0
sg28
g44
sg29
F235370.0
sg30
F192008.0
sg31
F900585.0
sg32
F83237.0
sg34
g45
ssS'BADUM JAMES P'
p240
(dp241
g3
g37
sg4
F178980.0
sg6
F3486.0
sg7
I00
sg8
g9
sg10
g38
sg12
g39
sg13
g40
sg14
g15
sg16
g41
sg17
g18
sg19
g42
sg20
g21
sg22
g43
sg23
g53
sg24
g25
sg26
g54
sg27
F257817.0
sg28
g44
sg29
g78
sg30
g55
sg31
F182466.0
sg32
F257817.0
sg34
g45
ssS'HERMANN ROBERT J'
p242
(dp243
g3
g37
sg4
g5
sg6
F48357.0
sg7
I00
sg8
F150000.0
sg10
S'robert.hermann@enron.com'
p244
sg12
g39
sg13
g40
sg14
F-280000.0
sg16
g41
sg17
g18
sg19
g42
sg20
g21
sg22
g43
sg23
F416441.0
sg24
g25
sg26
F700000.0
sg27
F668132.0
sg28
g44
sg29
F480632.0
sg30
F262663.0
sg31
F1297461.0
sg32
F187500.0
sg34
g45
ssS'FALLON JAMES B'
p245
(dp246
g3
F1755.0
sg4
g5
sg6
F95924.0
sg7
I00
sg8
F374347.0
sg10
S'jim.fallon@enron.com'
p247
sg12
F42.0
sg13
F0.023931623931623933
sg14
g15
sg16
F0.8765027322404372
sg17
g18
sg19
F1604.0
sg20
g21
sg22
F75.0
sg23
F401481.0
sg24
g25
sg26
F2500000.0
sg27
F2332399.0
sg28
F37.0
sg29
F1392142.0
sg30
F304588.0
sg31
F3676340.0
sg32
F940257.0
sg34
F0.49333333333333335
ssS'GATHMANN WILLIAM D'
p248
(dp249
g3
g37
sg4
g5
sg6
g51
sg7
I00
sg8
g9
sg10
g38
sg12
g39
sg13
g40
sg14
g15
sg16
g41
sg17
F-72419.0
sg19
g42
sg20
g21
sg22
g43
sg23
g53
sg24
g25
sg26
g54
sg27
F1945360.0
sg28
g44
sg29
F264013.0
sg30
g55
sg31
g56
sg32
F1753766.0
sg34
g45
ssS'HORTON STANLEY C'
p250
(dp251
g3
F2350.0
sg4
F3131860.0
sg6
g51
sg7
I00
sg8
g9
sg10
S'stanley.horton@enron.com'
p252
sg12
F44.0
sg13
F0.01872340425531915
sg14
g15
sg16
F0.3137598597721297
sg17
g18
sg19
F1074.0
sg20
g21
sg22
F1073.0
sg23
g53
sg24
g25
sg26
g54
sg27
F7256648.0
sg28
F15.0
sg29
F2046079.0
sg30
g55
sg31
F3131860.0
sg32
F5210569.0
sg34
F0.013979496738117428
ssS'BOWEN JR RAYMOND M'
p253
(dp254
g3
F1858.0
sg4
g5
sg6
F65907.0
sg7
I01
sg8
F974293.0
sg10
S'raymond.bowen@enron.com'
p255
sg12
F140.0
sg13
F0.07534983853606028
sg14
F-833.0
sg16
F0.8450928381962864
sg17
g18
sg19
F1593.0
sg20
g21
sg22
F27.0
sg23
F1621.0
sg24
g25
sg26
F1350000.0
sg27
F252055.0
sg28
F15.0
sg29
F252055.0
sg30
F278601.0
sg31
F2669589.0
sg32
g33
sg34
F0.5555555555555556
ssS'GILLIS JOHN'
p256
(dp257
g3
g37
sg4
g5
sg6
g51
sg7
I00
sg8
g9
sg10
g38
sg12
g39
sg13
g40
sg14
g15
sg16
g41
sg17
g18
sg19
g42
sg20
g21
sg22
g43
sg23
g53
sg24
g25
sg26
g54
sg27
F85641.0
sg28
g44
sg29
F75838.0
sg30
g55
sg31
g56
sg32
F9803.0
sg34
g45
ssS'FITZGERALD JAY L'
p258
(dp259
g3
F936.0
sg4
g5
sg6
F23870.0
sg7
I00
sg8
F556416.0
sg10
S'jay.fitzgerald@enron.com'
p260
sg12
F1.0
sg13
F0.0010683760683760685
sg14
g15
sg16
F0.759453781512605
sg17
g18
sg19
F723.0
sg20
g21
sg22
F16.0
sg23
F285414.0
sg24
g25
sg26
F350000.0
sg27
F1621236.0
sg28
F8.0
sg29
F956775.0
sg30
F199157.0
sg31
F1414857.0
sg32
F664461.0
sg34
F0.5
ssS'MORAN MICHAEL P'
p261
(dp262
g3
F672.0
sg4
g5
sg6
g51
sg7
I00
sg8
g9
sg10
S'michael.moran@enron.com'
p263
sg12
F0.0
sg13
F0.0
sg14
g15
sg16
F0.1837916063675832
sg17
g18
sg19
F127.0
sg20
g21
sg22
F19.0
sg23
g53
sg24
g25
sg26
g54
sg27
F221141.0
sg28
F0.0
sg29
F161602.0
sg30
g55
sg31
g56
sg32
F59539.0
sg34
F0.0
ssS'REDMOND BRIAN L'
p264
(dp265
g3
F1671.0
sg4
g5
sg6
F14689.0
sg7
I00
sg8
g9
sg10
S'brian.redmond@enron.com'
p266
sg12
F204.0
sg13
F0.12208258527827648
sg14
g15
sg16
F0.5618393234672304
sg17
g18
sg19
F1063.0
sg20
g21
sg22
F221.0
sg23
g53
sg24
g25
sg26
g54
sg27
F7890324.0
sg28
F49.0
sg29
F381285.0
sg30
F96840.0
sg31
F111529.0
sg32
F7509039.0
sg34
F0.22171945701357465
ssS'BAZELIDES PHILIP J'
p267
(dp268
g3
g37
sg4
F684694.0
sg6
g51
sg7
I00
sg8
F93750.0
sg10
g38
sg12
g39
sg13
g40
sg14
g15
sg16
g41
sg17
g18
sg19
g42
sg20
g21
sg22
g43
sg23
F874.0
sg24
g25
sg26
g54
sg27
F1599641.0
sg28
g44
sg29
g78
sg30
F80818.0
sg31
F860136.0
sg32
F1599641.0
sg34
g45
ssS'BELDEN TIMOTHY N'
p269
(dp270
g3
F7991.0
sg4
F2144013.0
sg6
F17355.0
sg7
I01
sg8
g9
sg10
S'tim.belden@enron.com'
p271
sg12
F228.0
sg13
F0.028532098610937303
sg14
F-2334434.0
sg16
F0.6514454277286136
sg17
g18
sg19
F5521.0
sg20
g21
sg22
F484.0
sg23
F210698.0
sg24
g25
sg26
F5249999.0
sg27
F1110705.0
sg28
F108.0
sg29
F157569.0
sg30
F213999.0
sg31
F5501630.0
sg32
F953136.0
sg34
F0.2231404958677686
ssS'DIMICHELE RICHARD G'
p272
(dp273
g3
g37
sg4
g5
sg6
F35812.0
sg7
I00
sg8
F694862.0
sg10
S'richard.dimichele@enron.com'
p274
sg12
g39
sg13
g40
sg14
g15
sg16
g41
sg17
g18
sg19
g42
sg20
g21
sg22
g43
sg23
F374689.0
sg24
g25
sg26
F1000000.0
sg27
F8317782.0
sg28
g44
sg29
F126027.0
sg30
F262788.0
sg31
F2368151.0
sg32
F8191755.0
sg34
g45
ssS'DURAN WILLIAM D'
p275
(dp276
g3
F904.0
sg4
g5
sg6
F25785.0
sg7
I00
sg8
F1105218.0
sg10
S'w.duran@enron.com'
p277
sg12
F106.0
sg13
F0.1172566371681416
sg14
g15
sg16
F0.6539301310043668
sg17
g18
sg19
F599.0
sg20
g21
sg22
F12.0
sg23
F1568.0
sg24
g25
sg26
F750000.0
sg27
F1640910.0
sg28
F3.0
sg29
F189041.0
sg30
F210692.0
sg31
F2093263.0
sg32
F1451869.0
sg34
F0.25
ssS'THORN TERENCE H'
p278
(dp279
g3
F266.0
sg4
F16586.0
sg6
F46145.0
sg7
I00
sg8
F200000.0
sg10
S'terence.thorn@enron.com'
p280
sg12
F0.0
sg13
F0.0
sg14
g15
sg16
F0.23778501628664495
sg17
g18
sg19
F73.0
sg20
g21
sg22
F41.0
sg23
F426629.0
sg24
g25
sg26
g54
sg27
F4817796.0
sg28
F0.0
sg29
F365320.0
sg30
F222093.0
sg31
F911453.0
sg32
F4452476.0
sg34
F0.0
ssS'FASTOW ANDREW S'
p281
(dp282
g3
g37
sg4
g5
sg6
F55921.0
sg7
I01
sg8
F1736055.0
sg10
S'andrew.fastow@enron.com'
p283
sg12
g39
sg13
g40
sg14
F-1386055.0
sg16
g41
sg17
g18
sg19
g42
sg20
g21
sg22
g43
sg23
F277464.0
sg24
g25
sg26
F1300000.0
sg27
F1794412.0
sg28
g44
sg29
F1794412.0
sg30
F440698.0
sg31
F2424083.0
sg32
g33
sg34
g45
ssS'FOY JOE'
p284
(dp285
g3
F57.0
sg4
F181755.0
sg6
g51
sg7
I00
sg8
g9
sg10
S'tracy.foy@enron.com'
p286
sg12
F0.0
sg13
F0.0
sg14
g15
sg16
F0.02857142857142857
sg17
g18
sg19
F2.0
sg20
g21
sg22
F13.0
sg23
g53
sg24
g25
sg26
g54
sg27
F343434.0
sg28
F0.0
sg29
g78
sg30
g55
sg31
F181755.0
sg32
F343434.0
sg34
F0.0
ssS'CALGER CHRISTOPHER F'
p287
(dp288
g3
F2598.0
sg4
g5
sg6
F35818.0
sg7
I01
sg8
F375304.0
sg10
S'christopher.calger@enron.com'
p289
sg12
F199.0
sg13
F0.07659738260200154
sg14
F-262500.0
sg16
F0.7979576951130561
sg17
g18
sg19
F2188.0
sg20
g21
sg22
F144.0
sg23
F486.0
sg24
g25
sg26
F1250000.0
sg27
F126027.0
sg28
F25.0
sg29
F126027.0
sg30
F240189.0
sg31
F1639297.0
sg32
g33
sg34
F0.1736111111111111
ssS'RICE KENNETH D'
p290
(dp291
g3
F905.0
sg4
g5
sg6
F46950.0
sg7
I01
sg8
F1617011.0
sg10
S'ken.rice@enron.com'
p292
sg12
F42.0
sg13
F0.04640883977900553
sg14
F-3504386.0
sg16
F0.9360780065005417
sg17
g18
sg19
F864.0
sg20
g21
sg22
F18.0
sg23
F174839.0
sg24
g25
sg26
F1750000.0
sg27
F22542539.0
sg28
F4.0
sg29
F2748364.0
sg30
F420636.0
sg31
F505050.0
sg32
F19794175.0
sg34
F0.2222222222222222
ssS'KAMINSKI WINCENTY J'
p293
(dp294
g3
F4607.0
sg4
g5
sg6
F83585.0
sg7
I00
sg8
F323466.0
sg10
S'vince.kaminski@enron.com'
p295
sg12
F41.0
sg13
F0.008899500759713479
sg14
g15
sg16
F0.03072463768115942
sg17
g18
sg19
F583.0
sg20
g21
sg22
F14368.0
sg23
F4669.0
sg24
g25
sg26
F400000.0
sg27
F976037.0
sg28
F171.0
sg29
F126027.0
sg30
F275101.0
sg31
F1086821.0
sg32
F850010.0
sg34
F0.011901447661469933
ssS'LOCKHART EUGENE E'
p296
(dp297
g3
g37
sg4
g5
sg6
g51
sg7
I00
sg8
g9
sg10
g38
sg12
g39
sg13
g40
sg14
g15
sg16
g41
sg17
g18
sg19
g42
sg20
g21
sg22
g43
sg23
g53
sg24
g25
sg26
g54
sg27
g114
sg28
g44
sg29
g78
sg30
g55
sg31
g56
sg32
g33
sg34
g45
ssS'COX DAVID'
p298
(dp299
g3
F102.0
sg4
g5
sg6
F27861.0
sg7
I00
sg8
g9
sg10
S'chip.cox@enron.com'
p300
sg12
F0.0
sg13
F0.0
sg14
F-41250.0
sg16
F0.5259259259259259
sg17
g18
sg19
F71.0
sg20
g21
sg22
F33.0
sg23
F494.0
sg24
g25
sg26
F800000.0
sg27
F495633.0
sg28
F4.0
sg29
F378082.0
sg30
F314288.0
sg31
F1101393.0
sg32
F117551.0
sg34
F0.12121212121212122
ssS'OVERDYKE JR JERE C'
p301
(dp302
g3
g37
sg4
g5
sg6
F18834.0
sg7
I00
sg8
F135836.0
sg10
S'jere.overdyke@enron.com'
p303
sg12
g39
sg13
g40
sg14
g15
sg16
g41
sg17
g18
sg19
g42
sg20
g21
sg22
g43
sg23
F176.0
sg24
g25
sg26
g54
sg27
F7307594.0
sg28
g44
sg29
F2041016.0
sg30
F94941.0
sg31
F249787.0
sg32
F5266578.0
sg34
g45
ssS'PEREIRA PAULO V. FERRAZ'
p304
(dp305
g3
g37
sg4
g5
sg6
F27942.0
sg7
I00
sg8
g9
sg10
g38
sg12
g39
sg13
g40
sg14
F-101250.0
sg16
g41
sg17
g18
sg19
g42
sg20
g21
sg22
g43
sg23
g53
sg24
F101250.0
sg26
g54
sg27
g114
sg28
g44
sg29
g78
sg30
g55
sg31
F27942.0
sg32
g33
sg34
g45
ssS'STABLER FRANK'
p306
(dp307
g3
g37
sg4
g5
sg6
F16514.0
sg7
I00
sg8
g9
sg10
S'frank.stabler@enron.com'
p308
sg12
g39
sg13
g40
sg14
g15
sg16
g41
sg17
g18
sg19
g42
sg20
g21
sg22
g43
sg23
F356071.0
sg24
g25
sg26
F500000.0
sg27
F511734.0
sg28
g44
sg29
F511734.0
sg30
F239502.0
sg31
F1112087.0
sg32
g33
sg34
g45
ssS'SKILLING JEFFREY K'
p309
(dp310
g3
F3627.0
sg4
g5
sg6
F29336.0
sg7
I01
sg8
F1920000.0
sg10
S'jeff.skilling@enron.com'
p311
sg12
F88.0
sg13
F0.0242624758753791
sg14
g15
sg16
F0.5467202141900938
sg17
g18
sg19
F2042.0
sg20
g21
sg22
F108.0
sg23
F22122.0
sg24
g25
sg26
F5600000.0
sg27
F26093672.0
sg28
F30.0
sg29
F6843672.0
sg30
F1111258.0
sg31
F8682716.0
sg32
F19250000.0
sg34
F0.2777777777777778
ssS'BLAKE JR. NORMAN P'
p312
(dp313
g3
g37
sg4
g5
sg6
F1279.0
sg7
I00
sg8
g9
sg10
g38
sg12
g39
sg13
g40
sg14
F-113784.0
sg16
g41
sg17
g18
sg19
g42
sg20
g21
sg22
g43
sg23
g53
sg24
F113784.0
sg26
g54
sg27
g114
sg28
g44
sg29
g78
sg30
g55
sg31
F1279.0
sg32
g33
sg34
g45
ssS'SHERRICK JEFFREY B'
p314
(dp315
g3
F613.0
sg4
g5
sg6
g51
sg7
I00
sg8
g9
sg10
S'jeffrey.sherrick@enron.com'
p316
sg12
F39.0
sg13
F0.0636215334420881
sg14
g15
sg16
F0.9137931034482759
sg17
g18
sg19
F583.0
sg20
g21
sg22
F25.0
sg23
g53
sg24
g25
sg26
g54
sg27
F1832468.0
sg28
F18.0
sg29
F405999.0
sg30
g55
sg31
g56
sg32
F1426469.0
sg34
F0.72
ssS'PRENTICE JAMES'
p317
(dp318
g3
g37
sg4
F564348.0
sg6
g51
sg7
I00
sg8
g9
sg10
S'james.prentice@enron.com'
p319
sg12
g39
sg13
g40
sg14
g15
sg16
g41
sg17
g18
sg19
g42
sg20
g21
sg22
g43
sg23
g53
sg24
g25
sg26
g54
sg27
F1095040.0
sg28
g44
sg29
F208809.0
sg30
g55
sg31
F564348.0
sg32
F886231.0
sg34
g45
ssS'GRAY RODNEY'
p320
(dp321
g3
g37
sg4
F93585.0
sg6
g51
sg7
I00
sg8
F365625.0
sg10
g38
sg12
g39
sg13
g40
sg14
g15
sg16
g41
sg17
g18
sg19
g42
sg20
g21
sg22
g43
sg23
F680833.0
sg24
g25
sg26
g54
sg27
g114
sg28
g44
sg29
g78
sg30
F6615.0
sg31
F1146658.0
sg32
g33
sg34
g45
ssS'UMANOFF ADAM S'
p322
(dp323
g3
F111.0
sg4
g5
sg6
F53122.0
sg7
I00
sg8
g9
sg10
S'adam.umanoff@enron.com'
p324
sg12
F12.0
sg13
F0.10810810810810811
sg14
g15
sg16
F0.3178294573643411
sg17
g18
sg19
F41.0
sg20
g21
sg22
F18.0
sg23
g53
sg24
g25
sg26
F788750.0
sg27
g114
sg28
F0.0
sg29
g78
sg30
F288589.0
sg31
F1130461.0
sg32
g33
sg34
F0.0
ssS'KEAN STEVEN J'
p325
(dp326
g3
F12754.0
sg4
g5
sg6
F41953.0
sg7
I00
sg8
F300000.0
sg10
S'steven.kean@enron.com'
p327
sg12
F140.0
sg13
F0.010976948408342482
sg14
g15
sg16
F0.1864910572438887
sg17
g18
sg19
F3639.0
sg20
g21
sg22
F6759.0
sg23
F1231.0
sg24
g25
sg26
F1000000.0
sg27
F6153642.0
sg28
F387.0
sg29
F4131594.0
sg30
F404338.0
sg31
F1747522.0
sg32
F2022048.0
sg34
F0.05725699067909454
ssS'FOWLER PEGGY'
p328
(dp329
g3
F517.0
sg4
g5
sg6
g51
sg7
I00
sg8
g9
sg10
S'kulvinder.fowler@enron.com'
p330
sg12
F0.0
sg13
F0.0
sg14
g15
sg16
F0.018083182640144666
sg17
g18
sg19
F10.0
sg20
g21
sg22
F36.0
sg23
g53
sg24
g25
sg26
g54
sg27
F1884748.0
sg28
F0.0
sg29
F560170.0
sg30
g55
sg31
g56
sg32
F1324578.0
sg34
F0.0
ssS'WASAFF GEORGE'
p331
(dp332
g3
F400.0
sg4
F831299.0
sg6
g51
sg7
I00
sg8
F200000.0
sg10
S'george.wasaff@enron.com'
p333
sg12
F22.0
sg13
F0.055
sg14
F-583325.0
sg16
F0.7837209302325582
sg17
g18
sg19
F337.0
sg20
g21
sg22
F30.0
sg23
F1425.0
sg24
g25
sg26
F325000.0
sg27
F2056427.0
sg28
F7.0
sg29
F388167.0
sg30
F259996.0
sg31
F1034395.0
sg32
F1668260.0
sg34
F0.23333333333333334
ssS'WHITE JR THOMAS E'
p334
(dp335
g3
g37
sg4
g5
sg6
F81353.0
sg7
I00
sg8
g9
sg10
S'thomas.white@enron.com'
p336
sg12
g39
sg13
g40
sg14
g15
sg16
g41
sg17
g18
sg19
g42
sg20
g21
sg22
g43
sg23
F1085463.0
sg24
g25
sg26
F450000.0
sg27
F15144123.0
sg28
g44
sg29
F13847074.0
sg30
F317543.0
sg31
F1934359.0
sg32
F1297049.0
sg34
g45
ssS'CHRISTODOULOU DIOMEDES'
p337
(dp338
g3
g37
sg4
g5
sg6
g51
sg7
I00
sg8
g9
sg10
S'diomedes.christodoulou@enron.com'
p339
sg12
g39
sg13
g40
sg14
g15
sg16
g41
sg17
g18
sg19
g42
sg20
g21
sg22
g43
sg23
g53
sg24
g25
sg26
g54
sg27
F6077885.0
sg28
g44
sg29
F950730.0
sg30
g55
sg31
g56
sg32
F5127155.0
sg34
g45
ssS'ALLEN PHILLIP K'
p340
(dp341
g3
F2902.0
sg4
F2869717.0
sg6
F13868.0
sg7
I00
sg8
F304805.0
sg10
S'phillip.allen@enron.com'
p342
sg12
F47.0
sg13
F0.016195727084769126
sg14
F-3081055.0
sg16
F0.27604473219540904
sg17
F-126027.0
sg19
F1407.0
sg20
g21
sg22
F2195.0
sg23
F152.0
sg24
g25
sg26
F4175000.0
sg27
F1729541.0
sg28
F65.0
sg29
F126027.0
sg30
F201955.0
sg31
F4484442.0
sg32
F1729541.0
sg34
F0.029612756264236904
ssS'SHARP VICTORIA T'
p343
(dp344
g3
F3136.0
sg4
F187469.0
sg6
F116337.0
sg7
I00
sg8
F422158.0
sg10
S'vicki.sharp@enron.com'
p345
sg12
F24.0
sg13
F0.007653061224489796
sg14
g15
sg16
F0.7570293398533008
sg17
g18
sg19
F2477.0
sg20
g21
sg22
F136.0
sg23
F2401.0
sg24
g25
sg26
F600000.0
sg27
F494136.0
sg28
F6.0
sg29
F213063.0
sg30
F248146.0
sg31
F1576511.0
sg32
F281073.0
sg34
F0.04411764705882353
ssS'JAEDICKE ROBERT'
p346
(dp347
g3
g37
sg4
g5
sg6
g51
sg7
I00
sg8
g9
sg10
g38
sg12
g39
sg13
g40
sg14
F-25000.0
sg16
g41
sg17
F-44093.0
sg19
g42
sg20
g21
sg22
g43
sg23
g53
sg24
F108750.0
sg26
g54
sg27
F431750.0
sg28
g44
sg29
F44093.0
sg30
g55
sg31
F83750.0
sg32
F431750.0
sg34
g45
ssS'WINOKUR JR. HERBERT S'
p348
(dp349
g3
g37
sg4
g5
sg6
F1413.0
sg7
I00
sg8
g9
sg10
g38
sg12
g39
sg13
g40
sg14
F-25000.0
sg16
g41
sg17
g18
sg19
g42
sg20
g21
sg22
g43
sg23
g53
sg24
F108579.0
sg26
g54
sg27
g114
sg28
g44
sg29
g78
sg30
g55
sg31
F84992.0
sg32
g33
sg34
g45
ssS'BROWN MICHAEL'
p350
(dp351
g3
F1486.0
sg4
g5
sg6
F49288.0
sg7
I00
sg8
g9
sg10
S'michael.brown@enron.com'
p352
sg12
F13.0
sg13
F0.008748317631224764
sg14
g15
sg16
F0.49836280288146695
sg17
g18
sg19
F761.0
sg20
g21
sg22
F41.0
sg23
g53
sg24
g25
sg26
g54
sg27
g114
sg28
F1.0
sg29
g78
sg30
g55
sg31
F49288.0
sg32
g33
sg34
F0.024390243902439025
ssS'MCCLELLAN GEORGE'
p353
(dp354
g3
F1744.0
sg4
g5
sg6
F228763.0
sg7
I00
sg8
g9
sg10
S'george.mcclellan@enron.com'
p355
sg12
F52.0
sg13
F0.02981651376146789
sg14
F-125000.0
sg16
F0.8192972671500279
sg17
g18
sg19
F1469.0
sg20
g21
sg22
F49.0
sg23
F51587.0
sg24
g25
sg26
F900000.0
sg27
F947861.0
sg28
F0.0
sg29
F441096.0
sg30
F263413.0
sg31
F1318763.0
sg32
F506765.0
sg34
F0.0
ssS'HUGHES JAMES A'
p356
(dp357
g3
F719.0
sg4
g5
sg6
g51
sg7
I00
sg8
g9
sg10
S'james.hughes@enron.com'
p358
sg12
F35.0
sg13
F0.048678720445062586
sg14
g15
sg16
F0.7822045152722443
sg17
g18
sg19
F589.0
sg20
g21
sg22
F34.0
sg23
g53
sg24
g25
sg26
g54
sg27
F1118394.0
sg28
F5.0
sg29
F363428.0
sg30
g55
sg31
g56
sg32
F754966.0
sg34
F0.14705882352941177
ssS'REYNOLDS LAWRENCE'
p359
(dp360
g3
g37
sg4
F51365.0
sg6
F8409.0
sg7
I00
sg8
F156250.0
sg10
g38
sg12
g39
sg13
g40
sg14
F-200000.0
sg16
g41
sg17
F-140264.0
sg19
g42
sg20
g21
sg22
g43
sg23
F202052.0
sg24
g25
sg26
F100000.0
sg27
F4221891.0
sg28
g44
sg29
F201483.0
sg30
F76399.0
sg31
F394475.0
sg32
F4160672.0
sg34
g45
ssS'PICKERING MARK R'
p361
(dp362
g3
F898.0
sg4
g5
sg6
F31653.0
sg7
I00
sg8
g9
sg10
S'mark.pickering@enron.com'
p363
sg12
F7.0
sg13
F0.0077951002227171495
sg14
g15
sg16
F0.7544041450777202
sg17
g18
sg19
F728.0
sg20
F400000.0
sg22
F67.0
sg23
g53
sg24
g25
sg26
F300000.0
sg27
F28798.0
sg28
F0.0
sg29
g78
sg30
F655037.0
sg31
F1386690.0
sg32
F28798.0
sg34
F0.0
ssS'BHATNAGAR SANJAY'
p364
(dp365
g3
F523.0
sg4
g5
sg6
g51
sg7
I00
sg8
g9
sg10
S'sanjay.bhatnagar@enron.com'
p366
sg12
F0.0
sg13
F0.0
sg14
g15
sg16
F0.8387681159420289
sg17
F15456290.0
sg19
F463.0
sg20
g21
sg22
F29.0
sg23
F137864.0
sg24
F137864.0
sg26
g54
sg27
g114
sg28
F1.0
sg29
F-2604490.0
sg30
g55
sg31
F15456290.0
sg32
F2604490.0
sg34
F0.034482758620689655
ssS'CARTER REBECCA C'
p367
(dp368
g3
F312.0
sg4
g5
sg6
g51
sg7
I00
sg8
F75000.0
sg10
S'rebecca.carter@enron.com'
p369
sg12
F29.0
sg13
F0.09294871794871795
sg14
F-159792.0
sg16
F0.599388379204893
sg17
F-307301.0
sg19
F196.0
sg20
g21
sg22
F15.0
sg23
F540.0
sg24
g25
sg26
F300000.0
sg27
g114
sg28
F7.0
sg29
F307301.0
sg30
F261809.0
sg31
F477557.0
sg32
g33
sg34
F0.4666666666666667
ssS'BUCHANAN HAROLD G'
p370
(dp371
g3
F1088.0
sg4
g5
sg6
F600.0
sg7
I00
sg8
F304805.0
sg10
S'john.buchanan@enron.com'
p372
sg12
F0.0
sg13
F0.0
sg14
g15
sg16
F0.018961253091508656
sg17
g18
sg19
F23.0
sg20
g21
sg22
F125.0
sg23
F1215.0
sg24
g25
sg26
F500000.0
sg27
F1014505.0
sg28
F0.0
sg29
F189041.0
sg30
F248017.0
sg31
F1054637.0
sg32
F825464.0
sg34
F0.0
ssS'YEAP SOON'
p373
(dp374
g3
g37
sg4
g5
sg6
F55097.0
sg7
I00
sg8
g9
sg10
g38
sg12
g39
sg13
g40
sg14
g15
sg16
g41
sg17
g18
sg19
g42
sg20
g21
sg22
g43
sg23
g53
sg24
g25
sg26
g54
sg27
F192758.0
sg28
g44
sg29
g78
sg30
g55
sg31
F55097.0
sg32
F192758.0
sg34
g45
ssS'MURRAY JULIA H'
p375
(dp376
g3
F2192.0
sg4
g5
sg6
F57580.0
sg7
I00
sg8
F125000.0
sg10
S'julia.murray@enron.com'
p377
sg12
F11.0
sg13
F0.005018248175182482
sg14
g15
sg16
F0.17657577112203846
sg17
g18
sg19
F395.0
sg20
g21
sg22
F45.0
sg23
F330.0
sg24
g25
sg26
F400000.0
sg27
F597461.0
sg28
F2.0
sg29
F196983.0
sg30
F229284.0
sg31
F812194.0
sg32
F400478.0
sg34
F0.044444444444444446
ssS'GARLAND C KEVIN'
p378
(dp379
g3
F209.0
sg4
g5
sg6
F48405.0
sg7
I00
sg8
F375304.0
sg10
S'kevin.garland@enron.com'
p380
sg12
F10.0
sg13
F0.04784688995215311
sg14
g15
sg16
F0.7035573122529645
sg17
g18
sg19
F178.0
sg20
g21
sg22
F44.0
sg23
F60814.0
sg24
g25
sg26
F850000.0
sg27
F896153.0
sg28
F27.0
sg29
F259907.0
sg30
F231946.0
sg31
F1566469.0
sg32
F636246.0
sg34
F0.6136363636363636
ssS'DODSON KEITH'
p381
(dp382
g3
F176.0
sg4
g5
sg6
F28164.0
sg7
I00
sg8
g9
sg10
S'keith.dodson@enron.com'
p383
sg12
F10.0
sg13
F0.056818181818181816
sg14
g15
sg16
F0.6
sg17
g18
sg19
F114.0
sg20
g21
sg22
F14.0
sg23
F774.0
sg24
g25
sg26
F70000.0
sg27
g114
sg28
F3.0
sg29
g78
sg30
F221003.0
sg31
F319941.0
sg32
g33
sg34
F0.21428571428571427
ssS'YEAGER F SCOTT'
p384
(dp385
g3
g37
sg4
g5
sg6
F53947.0
sg7
I01
sg8
g9
sg10
S'scott.yeager@enron.com'
p386
sg12
g39
sg13
g40
sg14
g15
sg16
g41
sg17
g18
sg19
g42
sg20
g21
sg22
g43
sg23
F147950.0
sg24
g25
sg26
g54
sg27
F11884758.0
sg28
g44
sg29
F3576206.0
sg30
F158403.0
sg31
F360300.0
sg32
F8308552.0
sg34
g45
ssS'HIRKO JOSEPH'
p387
(dp388
g3
g37
sg4
F10259.0
sg6
F77978.0
sg7
I01
sg8
g9
sg10
S'joe.hirko@enron.com'
p389
sg12
g39
sg13
g40
sg14
g15
sg16
g41
sg17
g18
sg19
g42
sg20
g21
sg22
g43
sg23
F2856.0
sg24
g25
sg26
g54
sg27
F30766064.0
sg28
g44
sg29
g78
sg30
g55
sg31
F91093.0
sg32
F30766064.0
sg34
g45
ssS'DIETRICH JANET R'
p390
(dp391
g3
F2572.0
sg4
g5
sg6
F3475.0
sg7
I00
sg8
F556416.0
sg10
S'janet.dietrich@enron.com'
p392
sg12
F305.0
sg13
F0.11858475894245724
sg14
g15
sg16
F0.7218216318785579
sg17
g18
sg19
F1902.0
sg20
g21
sg22
F63.0
sg23
F473.0
sg24
g25
sg26
F600000.0
sg27
F1865087.0
sg28
F14.0
sg29
F315068.0
sg30
F250100.0
sg31
F1410464.0
sg32
F1550019.0
sg34
F0.2222222222222222
ssS'DERRICK JR. JAMES V'
p393
(dp394
g3
F2181.0
sg4
g5
sg6
F51124.0
sg7
I00
sg8
F484000.0
sg10
S'james.derrick@enron.com'
p395
sg12
F64.0
sg13
F0.029344337459880788
sg14
F-1284000.0
sg16
F0.4533980582524272
sg17
F-1787380.0
sg19
F1401.0
sg20
g21
sg22
F909.0
sg23
F7482.0
sg24
g25
sg26
F800000.0
sg27
F8831913.0
sg28
F20.0
sg29
F1787380.0
sg30
F492375.0
sg31
F550981.0
sg32
F8831913.0
sg34
F0.022002200220022004
ssS'FREVERT MARK A'
p396
(dp397
g3
F3275.0
sg4
F6426990.0
sg6
F86987.0
sg7
I00
sg8
F1617011.0
sg10
S'mark.frevert@enron.com'
p398
sg12
F242.0
sg13
F0.07389312977099237
sg14
F-3367011.0
sg16
F0.9038228155339806
sg17
g18
sg19
F2979.0
sg20
F2000000.0
sg22
F21.0
sg23
F7427621.0
sg24
g25
sg26
F2000000.0
sg27
F14622185.0
sg28
F6.0
sg29
F4188667.0
sg30
F1060932.0
sg31
F17252530.0
sg32
F10433518.0
sg34
F0.2857142857142857
ssS'PAI LOU L'
p399
(dp400
g3
g37
sg4
g5
sg6
F32047.0
sg7
I00
sg8
g9
sg10
S'lou.pai@enron.com'
p401
sg12
g39
sg13
g40
sg14
g15
sg16
g41
sg17
g18
sg19
g42
sg20
g21
sg22
g43
sg23
F1829457.0
sg24
g25
sg26
F1000000.0
sg27
F23817930.0
sg28
g44
sg29
F8453763.0
sg30
F261879.0
sg31
F3123383.0
sg32
F15364167.0
sg34
g45
ssS'HAYSLETT RODERICK J'
p402
(dp403
g3
F2649.0
sg4
g5
sg6
g51
sg7
I00
sg8
g9
sg10
S'rod.hayslett@enron.com'
p404
sg12
F35.0
sg13
F0.01321253303133258
sg14
g15
sg16
F0.15390835579514825
sg17
g18
sg19
F571.0
sg20
g21
sg22
F1061.0
sg23
g53
sg24
g25
sg26
g54
sg27
F346663.0
sg28
F38.0
sg29
F346663.0
sg30
g55
sg31
g56
sg32
g33
sg34
F0.03581526861451461
ssS'BAY FRANKLIN R'
p405
(dp406
g3
g37
sg4
F260455.0
sg6
F129142.0
sg7
I00
sg8
g9
sg10
S'frank.bay@enron.com'
p407
sg12
g39
sg13
g40
sg14
F-201641.0
sg16
g41
sg17
F-82782.0
sg19
g42
sg20
g21
sg22
g43
sg23
F69.0
sg24
g25
sg26
F400000.0
sg27
F63014.0
sg28
g44
sg29
F145796.0
sg30
F239671.0
sg31
F827696.0
sg32
g33
sg34
g45
ssS'MCCARTY DANNY J'
p408
(dp409
g3
F1433.0
sg4
g5
sg6
g51
sg7
I00
sg8
g9
sg10
S'danny.mccarty@enron.com'
p410
sg12
F25.0
sg13
F0.017445917655268667
sg14
g15
sg16
F0.308252427184466
sg17
g18
sg19
F508.0
sg20
g21
sg22
F215.0
sg23
g53
sg24
g25
sg26
g54
sg27
F758931.0
sg28
F2.0
sg29
F94556.0
sg30
g55
sg31
g56
sg32
F664375.0
sg34
F0.009302325581395349
ssS'FUGH JOHN L'
p411
(dp412
g3
g37
sg4
F50591.0
sg6
g51
sg7
I00
sg8
g9
sg10
g38
sg12
g39
sg13
g40
sg14
g15
sg16
g41
sg17
g18
sg19
g42
sg20
g21
sg22
g43
sg23
g53
sg24
g25
sg26
g54
sg27
F176378.0
sg28
g44
sg29
g78
sg30
g55
sg31
F50591.0
sg32
F176378.0
sg34
g45
ssS'SCRIMSHAW MATTHEW'
p413
(dp414
g3
g37
sg4
g5
sg6
g51
sg7
I00
sg8
g9
sg10
S'matthew.scrimshaw@enron.com'
p415
sg12
g39
sg13
g40
sg14
g15
sg16
g41
sg17
g18
sg19
g42
sg20
g21
sg22
g43
sg23
g53
sg24
g25
sg26
g54
sg27
F759557.0
sg28
g44
sg29
g78
sg30
g55
sg31
g56
sg32
F759557.0
sg34
g45
ssS'KOENIG MARK E'
p416
(dp417
g3
F2374.0
sg4
g5
sg6
F127017.0
sg7
I01
sg8
F300000.0
sg10
S'mark.koenig@enron.com'
p418
sg12
F53.0
sg13
F0.02232518955349621
sg14
g15
sg16
F0.9326488706365503
sg17
g18
sg19
F2271.0
sg20
g21
sg22
F61.0
sg23
F150458.0
sg24
g25
sg26
F700000.0
sg27
F1920055.0
sg28
F15.0
sg29
F1248318.0
sg30
F309946.0
sg31
F1587421.0
sg32
F671737.0
sg34
F0.2459016393442623
ssS'SAVAGE FRANK'
p419
(dp420
g3
g37
sg4
g5
sg6
g51
sg7
I00
sg8
g9
sg10
g38
sg12
g39
sg13
g40
sg14
F-121284.0
sg16
g41
sg17
g18
sg19
g42
sg20
g21
sg22
g43
sg23
g53
sg24
F125034.0
sg26
g54
sg27
g114
sg28
g44
sg29
g78
sg30
g55
sg31
F3750.0
sg32
g33
sg34
g45
ssS'IZZO LAWRENCE L'
p421
(dp422
g3
F496.0
sg4
g5
sg6
F28093.0
sg7
I00
sg8
F312500.0
sg10
S'larry.izzo@enron.com'
p423
sg12
F28.0
sg13
F0.056451612903225805
sg14
g15
sg16
F0.8485436893203884
sg17
g18
sg19
F437.0
sg20
g21
sg22
F19.0
sg23
F1553729.0
sg24
g25
sg26
g54
sg27
F5819980.0
sg28
F5.0
sg29
F3654808.0
sg30
F85274.0
sg31
F1979596.0
sg32
F2165172.0
sg34
F0.2631578947368421
ssS'TILNEY ELIZABETH A'
p424
(dp425
g3
F460.0
sg4
g5
sg6
g51
sg7
I00
sg8
F275000.0
sg10
S'elizabeth.tilney@enron.com'
p426
sg12
F10.0
sg13
F0.021739130434782608
sg14
F-575000.0
sg16
F0.791231732776618
sg17
g18
sg19
F379.0
sg20
g21
sg22
F19.0
sg23
F152055.0
sg24
g25
sg26
F300000.0
sg27
F1168042.0
sg28
F11.0
sg29
F576792.0
sg30
F247338.0
sg31
F399393.0
sg32
F591250.0
sg34
F0.5789473684210527
ssS'MARTIN AMANDA K'
p427
(dp428
g3
F1522.0
sg4
F85430.0
sg6
F8211.0
sg7
I00
sg8
F5145434.0
sg10
S'a..martin@enron.com'
p429
sg12
F8.0
sg13
F0.005256241787122208
sg14
g15
sg16
F0.2722602739726027
sg17
g18
sg19
F477.0
sg20
g21
sg22
F230.0
sg23
F2818454.0
sg24
g25
sg26
g54
sg27
F2070306.0
sg28
F0.0
sg29
g78
sg30
F349487.0
sg31
F8407016.0
sg32
F2070306.0
sg34
F0.0
ssS'BUY RICHARD B'
p430
(dp431
g3
F3523.0
sg4
F649584.0
sg6
g51
sg7
I00
sg8
F769862.0
sg10
S'rick.buy@enron.com'
p432
sg12
F156.0
sg13
F0.04428044280442804
sg14
F-694862.0
sg16
F0.509833916083916
sg17
g18
sg19
F2333.0
sg20
g21
sg22
F1053.0
sg23
F400572.0
sg24
g25
sg26
F900000.0
sg27
F3444470.0
sg28
F71.0
sg29
F901657.0
sg30
F330546.0
sg31
F2355702.0
sg32
F2542813.0
sg34
F0.06742640075973409
ssS'GRAMM WENDY L'
p433
(dp434
g3
g37
sg4
g5
sg6
g51
sg7
I00
sg8
g9
sg10
g38
sg12
g39
sg13
g40
sg14
g15
sg16
g41
sg17
g18
sg19
g42
sg20
g21
sg22
g43
sg23
g53
sg24
F119292.0
sg26
g54
sg27
g114
sg28
g44
sg29
g78
sg30
g55
sg31
F119292.0
sg32
g33
sg34
g45
ssS'CAUSEY RICHARD A'
p435
(dp436
g3
F1892.0
sg4
g5
sg6
F30674.0
sg7
I01
sg8
F350000.0
sg10
S'richard.causey@enron.com'
p437
sg12
F58.0
sg13
F0.0306553911205074
sg14
F-235000.0
sg16
F0.8165893869139619
sg17
g18
sg19
F1585.0
sg20
g21
sg22
F49.0
sg23
F307895.0
sg24
g25
sg26
F1000000.0
sg27
F2502063.0
sg28
F12.0
sg29
F2502063.0
sg30
F415189.0
sg31
F1868758.0
sg32
g33
sg34
F0.24489795918367346
ssS'TAYLOR MITCHELL S'
p438
(dp439
g3
F533.0
sg4
F227449.0
sg6
g51
sg7
I00
sg8
g9
sg10
S'mitchell.taylor@enron.com'
p440
sg12
F0.0
sg13
F0.0
sg14
g15
sg16
F0.5338078291814946
sg17
g18
sg19
F300.0
sg20
g21
sg22
F29.0
sg23
g53
sg24
g25
sg26
F600000.0
sg27
F3745048.0
sg28
F0.0
sg29
F563798.0
sg30
F265214.0
sg31
F1092663.0
sg32
F3181250.0
sg34
F0.0
ssS'DONAHUE JR JEFFREY M'
p441
(dp442
g3
F865.0
sg4
g5
sg6
F96268.0
sg7
I00
sg8
g9
sg10
S'jeff.donahue@enron.com'
p443
sg12
F188.0
sg13
F0.21734104046242775
sg14
F-300000.0
sg16
F0.8703494926719278
sg17
g18
sg19
F772.0
sg20
g21
sg22
F22.0
sg23
F891.0
sg24
g25
sg26
F800000.0
sg27
F1080988.0
sg28
F11.0
sg29
F315068.0
sg30
F278601.0
sg31
F875760.0
sg32
F765920.0
sg34
F0.5
ssS'GLISAN JR BEN F'
p444
(dp445
g3
F873.0
sg4
g5
sg6
F125978.0
sg7
I01
sg8
F71023.0
sg10
S'ben.glisan@enron.com'
p446
sg12
F52.0
sg13
F0.05956471935853379
sg14
g15
sg16
F0.983127109111361
sg17
g18
sg19
F874.0
sg20
g21
sg22
F16.0
sg23
F200308.0
sg24
g25
sg26
F600000.0
sg27
F778546.0
sg28
F6.0
sg29
F393818.0
sg30
F274975.0
sg31
F1272284.0
sg32
F384728.0
sg34
F0.375
ss.